	.file	"cgh-float-fresnel.c"
	.text
.Ltext0:
	.globl	getrusage_sec
	.type	getrusage_sec, @function
getrusage_sec:
.LFB2:
	.file 1 "cgh-float-fresnel.c"
	.loc 1 53 0
	.cfi_startproc
	pushq	%rbp
	.cfi_def_cfa_offset 16
	.cfi_offset 6, -16
	movq	%rsp, %rbp
	.cfi_def_cfa_register 6
	subq	$176, %rsp
	.loc 1 53 0
	movq	%fs:40, %rax
	movq	%rax, -8(%rbp)
	xorl	%eax, %eax
	.loc 1 57 0
	leaq	-160(%rbp), %rax
	movq	%rax, %rsi
	movl	$0, %edi
	call	getrusage
	.loc 1 58 0
	movq	-160(%rbp), %rax
	movq	-152(%rbp), %rdx
	movq	%rax, -176(%rbp)
	movq	%rdx, -168(%rbp)
	.loc 1 60 0
	movq	-176(%rbp), %rax
	pxor	%xmm1, %xmm1
	cvtsi2sdq	%rax, %xmm1
	movq	-168(%rbp), %rax
	pxor	%xmm0, %xmm0
	cvtsi2sdq	%rax, %xmm0
	movsd	.LC0(%rip), %xmm2
	mulsd	%xmm2, %xmm0
	addsd	%xmm1, %xmm0
	.loc 1 61 0
	movq	-8(%rbp), %rax
	xorq	%fs:40, %rax
	je	.L3
	call	__stack_chk_fail
.L3:
	leave
	.cfi_def_cfa 7, 8
	ret
	.cfi_endproc
.LFE2:
	.size	getrusage_sec, .-getrusage_sec
	.section	.rodata
	.align 8
.LC1:
	.string	"\343\203\225\343\202\241\343\202\244\343\203\253\345\220\215\343\202\222\345\205\245\345\212\233\343\201\227\343\201\246\343\201\217\343\201\240\343\201\225\343\201\204 :  "
.LC2:
	.string	"%s"
.LC3:
	.string	"rb"
	.align 8
.LC4:
	.string	"\343\203\225\343\202\241\343\202\244\343\203\253\343\202\252\343\203\274\343\203\227\343\203\263\343\202\250\343\203\251\343\203\274"
.LC5:
	.string	"\347\211\251\344\275\223\347\202\271\346\225\260\343\201\257%d\343\201\247\343\201\231\n"
	.align 8
.LC13:
	.string	"min = %lf  max = %lf  mid = %lf\n"
.LC14:
	.string	"wb"
.LC15:
	.string	"cgh_root.bmp"
.LC16:
	.string	"Calculation time is %lf\n"
	.text
	.globl	main
	.type	main, @function
main:
.LFB3:
	.loc 1 64 0
	.cfi_startproc
	pushq	%rbp
	.cfi_def_cfa_offset 16
	.cfi_offset 6, -16
	movq	%rsp, %rbp
	.cfi_def_cfa_register 6
	pushq	%r15
	pushq	%r14
	pushq	%r13
	pushq	%r12
	pushq	%rbx
	subq	$1368, %rsp
	.cfi_offset 15, -24
	.cfi_offset 14, -32
	.cfi_offset 13, -40
	.cfi_offset 12, -48
	.cfi_offset 3, -56
	.loc 1 64 0
	movq	%fs:40, %rax
	movq	%rax, -56(%rbp)
	xorl	%eax, %eax
	.loc 1 77 0
	movw	$19778, -1168(%rbp)
	.loc 1 78 0
	movl	$2074678, -1166(%rbp)
	.loc 1 79 0
	movw	$0, -1162(%rbp)
	.loc 1 80 0
	movw	$0, -1160(%rbp)
	.loc 1 81 0
	movl	$1078, -1158(%rbp)
	.loc 1 83 0
	movl	$40, -1152(%rbp)
	.loc 1 84 0
	movl	$1920, -1148(%rbp)
	.loc 1 85 0
	movl	$1080, -1144(%rbp)
	.loc 1 86 0
	movw	$1, -1140(%rbp)
	.loc 1 87 0
	movw	$8, -1138(%rbp)
	.loc 1 88 0
	movl	$0, -1136(%rbp)
	.loc 1 89 0
	movl	$0, -1132(%rbp)
	.loc 1 90 0
	movl	$0, -1128(%rbp)
	.loc 1 91 0
	movl	$0, -1124(%rbp)
	.loc 1 92 0
	movl	$0, -1120(%rbp)
	.loc 1 93 0
	movl	$0, -1116(%rbp)
	.loc 1 95 0
	movl	$0, -1316(%rbp)
	jmp	.L5
.L6:
	.loc 1 96 0 discriminator 3
	movl	-1316(%rbp), %eax
	movl	%eax, %edx
	movl	-1316(%rbp), %eax
	cltq
	movb	%dl, -1104(%rbp,%rax,4)
	.loc 1 97 0 discriminator 3
	movl	-1316(%rbp), %eax
	movl	%eax, %edx
	movl	-1316(%rbp), %eax
	cltq
	movb	%dl, -1103(%rbp,%rax,4)
	.loc 1 98 0 discriminator 3
	movl	-1316(%rbp), %eax
	movl	%eax, %edx
	movl	-1316(%rbp), %eax
	cltq
	movb	%dl, -1102(%rbp,%rax,4)
	.loc 1 99 0 discriminator 3
	movl	-1316(%rbp), %eax
	cltq
	movb	$0, -1101(%rbp,%rax,4)
	.loc 1 95 0 discriminator 3
	addl	$1, -1316(%rbp)
.L5:
	.loc 1 95 0 is_stmt 0 discriminator 1
	cmpl	$255, -1316(%rbp)
	jle	.L6
	.loc 1 102 0 is_stmt 1
	movq	$0, -80(%rbp)
	movq	$0, -72(%rbp)
	movl	$0, -64(%rbp)
	.loc 1 103 0
	movl	$.LC1, %edi
	movl	$0, %eax
	call	printf
	.loc 1 104 0
	leaq	-80(%rbp), %rax
	movq	%rax, %rsi
	movl	$.LC2, %edi
	movl	$0, %eax
	call	__isoc99_scanf
	.loc 1 106 0
	leaq	-80(%rbp), %rax
	movl	$.LC3, %esi
	movq	%rax, %rdi
	call	fopen
	movq	%rax, -1264(%rbp)
	.loc 1 107 0
	cmpq	$0, -1264(%rbp)
	jne	.L7
	.loc 1 108 0
	movl	$.LC4, %edi
	call	puts
.L7:
	.loc 1 111 0
	movq	-1264(%rbp), %rax
	leaq	-1332(%rbp), %rdi
	movq	%rax, %rcx
	movl	$1, %edx
	movl	$4, %esi
	call	fread
	.loc 1 112 0
	movl	-1332(%rbp), %eax
	movl	%eax, %esi
	movl	$.LC5, %edi
	movl	$0, %eax
	call	printf
	.loc 1 114 0
	movl	-1332(%rbp), %edx
	movq	%rsp, %rax
	movq	%rax, %rbx
	movslq	%edx, %rax
	subq	$1, %rax
	movq	%rax, -1256(%rbp)
	movslq	%edx, %rax
	movq	%rax, -1360(%rbp)
	movq	$0, -1352(%rbp)
	movslq	%edx, %rax
	movq	%rax, -1376(%rbp)
	movq	$0, -1368(%rbp)
	movslq	%edx, %rax
	salq	$2, %rax
	leaq	3(%rax), %rdx
	movl	$16, %eax
	subq	$1, %rax
	addq	%rdx, %rax
	movl	$16, %ecx
	movl	$0, %edx
	divq	%rcx
	imulq	$16, %rax, %rax
	subq	%rax, %rsp
	movq	%rsp, %rax
	addq	$3, %rax
	shrq	$2, %rax
	salq	$2, %rax
	movq	%rax, -1248(%rbp)
	.loc 1 115 0
	movl	-1332(%rbp), %eax
	movslq	%eax, %rdx
	subq	$1, %rdx
	movq	%rdx, -1240(%rbp)
	movslq	%eax, %rdx
	movq	%rdx, -1392(%rbp)
	movq	$0, -1384(%rbp)
	movslq	%eax, %rdx
	movq	%rdx, -1408(%rbp)
	movq	$0, -1400(%rbp)
	cltq
	salq	$2, %rax
	leaq	3(%rax), %rdx
	movl	$16, %eax
	subq	$1, %rax
	addq	%rdx, %rax
	movl	$16, %esi
	movl	$0, %edx
	divq	%rsi
	imulq	$16, %rax, %rax
	subq	%rax, %rsp
	movq	%rsp, %rax
	addq	$3, %rax
	shrq	$2, %rax
	salq	$2, %rax
	movq	%rax, -1232(%rbp)
	.loc 1 116 0
	movl	-1332(%rbp), %eax
	movslq	%eax, %rdx
	subq	$1, %rdx
	movq	%rdx, -1224(%rbp)
	movslq	%eax, %rdx
	movq	%rdx, %r14
	movl	$0, %r15d
	movslq	%eax, %rdx
	movq	%rdx, %r12
	movl	$0, %r13d
	cltq
	salq	$2, %rax
	leaq	3(%rax), %rdx
	movl	$16, %eax
	subq	$1, %rax
	addq	%rdx, %rax
	movl	$16, %ecx
	movl	$0, %edx
	divq	%rcx
	imulq	$16, %rax, %rax
	subq	%rax, %rsp
	movq	%rsp, %rax
	addq	$3, %rax
	shrq	$2, %rax
	salq	$2, %rax
	movq	%rax, -1216(%rbp)
	.loc 1 120 0
	movl	$0, -1316(%rbp)
	jmp	.L8
.L9:
	.loc 1 121 0 discriminator 3
	movq	-1264(%rbp), %rdx
	leaq	-1328(%rbp), %rax
	movq	%rdx, %rcx
	movl	$1, %edx
	movl	$4, %esi
	movq	%rax, %rdi
	call	fread
	.loc 1 122 0 discriminator 3
	movq	-1264(%rbp), %rdx
	leaq	-1324(%rbp), %rax
	movq	%rdx, %rcx
	movl	$1, %edx
	movl	$4, %esi
	movq	%rax, %rdi
	call	fread
	.loc 1 123 0 discriminator 3
	movq	-1264(%rbp), %rdx
	leaq	-1320(%rbp), %rax
	movq	%rdx, %rcx
	movl	$1, %edx
	movl	$4, %esi
	movq	%rax, %rdi
	call	fread
	.loc 1 125 0 discriminator 3
	movl	-1328(%rbp), %edx
	movl	%edx, %eax
	sall	$2, %eax
	addl	%edx, %eax
	sall	$3, %eax
	leal	960(%rax), %ecx
	movq	-1248(%rbp), %rax
	movl	-1316(%rbp), %edx
	movslq	%edx, %rdx
	movl	%ecx, (%rax,%rdx,4)
	.loc 1 126 0 discriminator 3
	movl	-1324(%rbp), %edx
	movl	%edx, %eax
	sall	$2, %eax
	addl	%edx, %eax
	sall	$3, %eax
	leal	540(%rax), %ecx
	movq	-1232(%rbp), %rax
	movl	-1316(%rbp), %edx
	movslq	%edx, %rdx
	movl	%ecx, (%rax,%rdx,4)
	.loc 1 127 0 discriminator 3
	movl	-1320(%rbp), %eax
	pxor	%xmm0, %xmm0
	cvtsi2ss	%eax, %xmm0
	movss	.LC6(%rip), %xmm1
	mulss	%xmm1, %xmm0
	movss	.LC7(%rip), %xmm1
	addss	%xmm1, %xmm0
	movq	-1216(%rbp), %rax
	movl	-1316(%rbp), %edx
	movslq	%edx, %rdx
	movss	%xmm0, (%rax,%rdx,4)
	.loc 1 120 0 discriminator 3
	addl	$1, -1316(%rbp)
.L8:
	.loc 1 120 0 is_stmt 0 discriminator 1
	movl	-1332(%rbp), %eax
	cmpl	%eax, -1316(%rbp)
	jl	.L9
	.loc 1 129 0 is_stmt 1
	movq	-1264(%rbp), %rax
	movq	%rax, %rdi
	call	fclose
	.loc 1 139 0
	movl	$8294400, %edi
	call	malloc
	movq	%rax, -1208(%rbp)
	.loc 1 140 0
	movl	$0, -1316(%rbp)
	jmp	.L10
.L11:
	.loc 1 141 0 discriminator 3
	movl	-1316(%rbp), %eax
	cltq
	leaq	0(,%rax,4), %rdx
	movq	-1208(%rbp), %rax
	addq	%rdx, %rax
	pxor	%xmm0, %xmm0
	movss	%xmm0, (%rax)
	.loc 1 140 0 discriminator 3
	addl	$1, -1316(%rbp)
.L10:
	.loc 1 140 0 is_stmt 0 discriminator 1
	cmpl	$2073599, -1316(%rbp)
	jle	.L11
	.loc 1 146 0 is_stmt 1
	movss	.LC9(%rip), %xmm0
	movss	%xmm0, -1292(%rbp)
	.loc 1 147 0
	movss	.LC10(%rip), %xmm0
	movss	%xmm0, -1288(%rbp)
	.loc 1 148 0
	movss	.LC11(%rip), %xmm0
	movss	%xmm0, -1284(%rbp)
	.loc 1 149 0
	movss	-1292(%rbp), %xmm0
	addss	%xmm0, %xmm0
	mulss	-1284(%rbp), %xmm0
	divss	-1288(%rbp), %xmm0
	movss	%xmm0, -1280(%rbp)
	.loc 1 154 0
	movl	$0, %eax
	call	getrusage_sec
	movq	%xmm0, %rax
	movq	%rax, -1200(%rbp)
	.loc 1 155 0
	movl	$0, -1316(%rbp)
	jmp	.L12
.L17:
	.loc 1 156 0
	movl	$0, -1312(%rbp)
	jmp	.L13
.L16:
	.loc 1 157 0
	pxor	%xmm0, %xmm0
	movss	%xmm0, -1304(%rbp)
	.loc 1 158 0
	movl	$0, -1308(%rbp)
	jmp	.L14
.L15:
	.loc 1 159 0 discriminator 3
	movq	-1248(%rbp), %rax
	movl	-1308(%rbp), %edx
	movslq	%edx, %rdx
	movl	(%rax,%rdx,4), %eax
	subl	-1312(%rbp), %eax
	pxor	%xmm0, %xmm0
	cvtsi2ss	%eax, %xmm0
	movss	%xmm0, -1276(%rbp)
	.loc 1 160 0 discriminator 3
	movq	-1232(%rbp), %rax
	movl	-1308(%rbp), %edx
	movslq	%edx, %rdx
	movl	(%rax,%rdx,4), %eax
	subl	-1316(%rbp), %eax
	pxor	%xmm0, %xmm0
	cvtsi2ss	%eax, %xmm0
	movss	%xmm0, -1272(%rbp)
	.loc 1 161 0 discriminator 3
	cvtss2sd	-1304(%rbp), %xmm3
	movsd	%xmm3, -1360(%rbp)
	movss	-1280(%rbp), %xmm1
	movss	.LC12(%rip), %xmm0
	mulss	%xmm0, %xmm1
	movss	-1276(%rbp), %xmm0
	movaps	%xmm0, %xmm2
	mulss	-1276(%rbp), %xmm2
	movss	-1272(%rbp), %xmm0
	mulss	-1272(%rbp), %xmm0
	addss	%xmm2, %xmm0
	mulss	%xmm1, %xmm0
	movq	-1216(%rbp), %rax
	movl	-1308(%rbp), %edx
	movslq	%edx, %rdx
	movss	(%rax,%rdx,4), %xmm1
	divss	%xmm1, %xmm0
	cvtss2sd	%xmm0, %xmm0
	call	cos
	addsd	-1360(%rbp), %xmm0
	cvtsd2ss	%xmm0, %xmm4
	movss	%xmm4, -1304(%rbp)
	.loc 1 158 0 discriminator 3
	addl	$1, -1308(%rbp)
.L14:
	.loc 1 158 0 is_stmt 0 discriminator 1
	movl	-1332(%rbp), %eax
	cmpl	%eax, -1308(%rbp)
	jl	.L15
	.loc 1 165 0 is_stmt 1 discriminator 2
	movl	-1316(%rbp), %eax
	sall	$7, %eax
	movl	%eax, %edx
	sall	$4, %edx
	subl	%eax, %edx
	movl	-1312(%rbp), %eax
	addl	%edx, %eax
	cltq
	leaq	0(,%rax,4), %rdx
	movq	-1208(%rbp), %rax
	addq	%rdx, %rax
	movss	-1304(%rbp), %xmm0
	movss	%xmm0, (%rax)
	.loc 1 156 0 discriminator 2
	addl	$1, -1312(%rbp)
.L13:
	.loc 1 156 0 is_stmt 0 discriminator 1
	cmpl	$1919, -1312(%rbp)
	jle	.L16
	.loc 1 155 0 is_stmt 1 discriminator 2
	addl	$1, -1316(%rbp)
.L12:
	.loc 1 155 0 is_stmt 0 discriminator 1
	cmpl	$1079, -1316(%rbp)
	jle	.L17
	.loc 1 168 0 is_stmt 1
	movl	$0, %eax
	call	getrusage_sec
	movq	%xmm0, %rax
	movq	%rax, -1192(%rbp)
	.loc 1 172 0
	movq	-1208(%rbp), %rax
	movss	(%rax), %xmm0
	movss	%xmm0, -1300(%rbp)
	.loc 1 173 0
	movq	-1208(%rbp), %rax
	movss	(%rax), %xmm0
	movss	%xmm0, -1296(%rbp)
	.loc 1 175 0
	movl	$0, -1316(%rbp)
	jmp	.L18
.L25:
	.loc 1 176 0
	movl	$0, -1312(%rbp)
	jmp	.L19
.L24:
	.loc 1 177 0
	movl	-1316(%rbp), %eax
	sall	$7, %eax
	movl	%eax, %edx
	sall	$4, %edx
	subl	%eax, %edx
	movl	-1312(%rbp), %eax
	addl	%edx, %eax
	cltq
	leaq	0(,%rax,4), %rdx
	movq	-1208(%rbp), %rax
	addq	%rdx, %rax
	movss	(%rax), %xmm1
	movss	-1300(%rbp), %xmm0
	ucomiss	%xmm1, %xmm0
	jbe	.L20
	.loc 1 178 0
	movl	-1316(%rbp), %eax
	sall	$7, %eax
	movl	%eax, %edx
	sall	$4, %edx
	subl	%eax, %edx
	movl	-1312(%rbp), %eax
	addl	%edx, %eax
	cltq
	leaq	0(,%rax,4), %rdx
	movq	-1208(%rbp), %rax
	addq	%rdx, %rax
	movss	(%rax), %xmm0
	movss	%xmm0, -1300(%rbp)
.L20:
	.loc 1 180 0
	movl	-1316(%rbp), %eax
	sall	$7, %eax
	movl	%eax, %edx
	sall	$4, %edx
	subl	%eax, %edx
	movl	-1312(%rbp), %eax
	addl	%edx, %eax
	cltq
	leaq	0(,%rax,4), %rdx
	movq	-1208(%rbp), %rax
	addq	%rdx, %rax
	movss	(%rax), %xmm0
	ucomiss	-1296(%rbp), %xmm0
	jbe	.L22
	.loc 1 181 0
	movl	-1316(%rbp), %eax
	sall	$7, %eax
	movl	%eax, %edx
	sall	$4, %edx
	subl	%eax, %edx
	movl	-1312(%rbp), %eax
	addl	%edx, %eax
	cltq
	leaq	0(,%rax,4), %rdx
	movq	-1208(%rbp), %rax
	addq	%rdx, %rax
	movss	(%rax), %xmm0
	movss	%xmm0, -1296(%rbp)
.L22:
	.loc 1 176 0 discriminator 2
	addl	$1, -1312(%rbp)
.L19:
	.loc 1 176 0 is_stmt 0 discriminator 1
	cmpl	$1919, -1312(%rbp)
	jle	.L24
	.loc 1 175 0 is_stmt 1 discriminator 2
	addl	$1, -1316(%rbp)
.L18:
	.loc 1 175 0 is_stmt 0 discriminator 1
	cmpl	$1079, -1316(%rbp)
	jle	.L25
	.loc 1 186 0 is_stmt 1
	movss	-1300(%rbp), %xmm0
	addss	-1296(%rbp), %xmm0
	movss	.LC12(%rip), %xmm1
	mulss	%xmm1, %xmm0
	movss	%xmm0, -1268(%rbp)
	.loc 1 188 0
	cvtss2sd	-1268(%rbp), %xmm2
	cvtss2sd	-1296(%rbp), %xmm1
	cvtss2sd	-1300(%rbp), %xmm0
	movl	$.LC13, %edi
	movl	$3, %eax
	call	printf
	.loc 1 192 0
	movl	$2073600, %edi
	call	malloc
	movq	%rax, -1184(%rbp)
	.loc 1 194 0
	movl	$0, -1316(%rbp)
	jmp	.L26
.L31:
	.loc 1 195 0
	movl	-1316(%rbp), %eax
	cltq
	leaq	0(,%rax,4), %rdx
	movq	-1208(%rbp), %rax
	addq	%rdx, %rax
	movss	(%rax), %xmm1
	movss	-1268(%rbp), %xmm0
	ucomiss	%xmm1, %xmm0
	jbe	.L27
	.loc 1 196 0
	movl	-1316(%rbp), %eax
	movslq	%eax, %rdx
	movq	-1184(%rbp), %rax
	addq	%rdx, %rax
	movb	$0, (%rax)
.L27:
	.loc 1 198 0
	movl	-1316(%rbp), %eax
	cltq
	leaq	0(,%rax,4), %rdx
	movq	-1208(%rbp), %rax
	addq	%rdx, %rax
	movss	(%rax), %xmm0
	ucomiss	-1268(%rbp), %xmm0
	jbe	.L29
	.loc 1 199 0
	movl	-1316(%rbp), %eax
	movslq	%eax, %rdx
	movq	-1184(%rbp), %rax
	addq	%rdx, %rax
	movb	$-1, (%rax)
.L29:
	.loc 1 194 0 discriminator 2
	addl	$1, -1316(%rbp)
.L26:
	.loc 1 194 0 is_stmt 0 discriminator 1
	cmpl	$2073599, -1316(%rbp)
	jle	.L31
	.loc 1 204 0 is_stmt 1
	movl	$.LC14, %esi
	movl	$.LC15, %edi
	call	fopen
	movq	%rax, -1176(%rbp)
	.loc 1 205 0
	cmpq	$0, -1176(%rbp)
	jne	.L32
	.loc 1 206 0
	movl	$.LC4, %edi
	call	puts
.L32:
	.loc 1 209 0
	movq	-1176(%rbp), %rdx
	leaq	-1168(%rbp), %rax
	movq	%rdx, %rcx
	movl	$1, %edx
	movl	$14, %esi
	movq	%rax, %rdi
	call	fwrite
	.loc 1 210 0
	movq	-1176(%rbp), %rdx
	leaq	-1152(%rbp), %rax
	movq	%rdx, %rcx
	movl	$1, %edx
	movl	$40, %esi
	movq	%rax, %rdi
	call	fwrite
	.loc 1 211 0
	movq	-1176(%rbp), %rdx
	leaq	-1104(%rbp), %rax
	movq	%rdx, %rcx
	movl	$256, %edx
	movl	$4, %esi
	movq	%rax, %rdi
	call	fwrite
	.loc 1 212 0
	movq	-1176(%rbp), %rdx
	movq	-1184(%rbp), %rax
	movq	%rdx, %rcx
	movl	$2073600, %edx
	movl	$1, %esi
	movq	%rax, %rdi
	call	fwrite
	.loc 1 214 0
	movsd	-1192(%rbp), %xmm0
	subsd	-1200(%rbp), %xmm0
	movl	$.LC16, %edi
	movl	$1, %eax
	call	printf
	.loc 1 216 0
	movq	-1184(%rbp), %rax
	movq	%rax, %rdi
	call	free
	.loc 1 217 0
	movq	-1208(%rbp), %rax
	movq	%rax, %rdi
	call	free
	.loc 1 218 0
	movq	-1176(%rbp), %rax
	movq	%rax, %rdi
	call	fclose
	.loc 1 220 0
	movl	$0, %eax
	movq	%rbx, %rsp
	.loc 1 224 0
	movq	-56(%rbp), %rbx
	xorq	%fs:40, %rbx
	je	.L34
	call	__stack_chk_fail
.L34:
	leaq	-40(%rbp), %rsp
	popq	%rbx
	popq	%r12
	popq	%r13
	popq	%r14
	popq	%r15
	popq	%rbp
	.cfi_def_cfa 7, 8
	ret
	.cfi_endproc
.LFE3:
	.size	main, .-main
	.section	.rodata
	.align 8
.LC0:
	.long	2696277389
	.long	1051772663
	.align 4
.LC6:
	.long	1109393408
	.align 4
.LC7:
	.long	1203982336
	.align 4
.LC9:
	.long	1078530011
	.align 4
.LC10:
	.long	1059195978
	.align 4
.LC11:
	.long	1093140480
	.align 4
.LC12:
	.long	1056964608
	.text
.Letext0:
	.file 2 "/usr/lib/gcc/x86_64-linux-gnu/5/include/stddef.h"
	.file 3 "/usr/include/x86_64-linux-gnu/bits/types.h"
	.file 4 "/usr/include/stdio.h"
	.file 5 "/usr/include/libio.h"
	.file 6 "/usr/include/stdint.h"
	.file 7 "/usr/include/x86_64-linux-gnu/bits/time.h"
	.file 8 "/usr/include/x86_64-linux-gnu/sys/time.h"
	.file 9 "/usr/include/x86_64-linux-gnu/bits/resource.h"
	.section	.note.GNU-stack,"",@progbits
